; Function Attrs: nounwind uwtable
define void @evp_rand_clear_seed(ptr noundef readonly captures(none) %0, ptr noundef %1, i64 noundef %2) local_unnamed_addr #0 {
  %4 = load ptr, ptr %0, align 8, !tbaa !3
  %5 = getelementptr inbounds nuw i8, ptr %4, i64 112
  %6 = load ptr, ptr %5, align 8, !tbaa !37
  %.not.i = icmp eq ptr %6, null
  br i1 %.not.i, label %evp_rand_lock.exit.thread, label %evp_rand_lock.exit

evp_rand_lock.exit:                               ; preds = %3
  %7 = getelementptr inbounds nuw i8, ptr %0, i64 8
  %8 = load ptr, ptr %7, align 8, !tbaa !17
  %9 = tail call i32 %6(ptr noundef %8) #8
  %.not = icmp eq i32 %9, 0
  br i1 %.not, label %evp_rand_unlock.exit, label %evp_rand_lock.exit.evp_rand_lock.exit.thread_crit_edge

evp_rand_lock.exit.evp_rand_lock.exit.thread_crit_edge: ; preds = %evp_rand_lock.exit
  %.pre = load ptr, ptr %0, align 8, !tbaa !3
  br label %evp_rand_lock.exit.thread

evp_rand_lock.exit.thread:                        ; preds = %evp_rand_lock.exit.evp_rand_lock.exit.thread_crit_edge, %3
  %10 = phi ptr [ %.pre, %evp_rand_lock.exit.evp_rand_lock.exit.thread_crit_edge ], [ %4, %3 ]
  %11 = getelementptr inbounds nuw i8, ptr %10, i64 192
  %12 = load ptr, ptr %11, align 8, !tbaa !47
  %.not.i4 = icmp eq ptr %12, null
  br i1 %.not.i4, label %evp_rand_clear_seed_locked.exit, label %13

13:                                               ; preds = %evp_rand_lock.exit.thread
  %14 = getelementptr inbounds nuw i8, ptr %0, i64 8
  %15 = load ptr, ptr %14, align 8, !tbaa !17
  tail call void %12(ptr noundef %15, ptr noundef %1, i64 noundef %2) #8
  %.pre8 = load ptr, ptr %0, align 8, !tbaa !3
  br label %evp_rand_clear_seed_locked.exit

evp_rand_clear_seed_locked.exit:                  ; preds = %evp_rand_lock.exit.thread, %13
  %16 = phi ptr [ %10, %evp_rand_lock.exit.thread ], [ %.pre8, %13 ]
  %17 = getelementptr inbounds nuw i8, ptr %16, i64 120
  %18 = load ptr, ptr %17, align 8, !tbaa !38
  %.not.i5 = icmp eq ptr %18, null
  br i1 %.not.i5, label %evp_rand_unlock.exit, label %19

19:                                               ; preds = %evp_rand_clear_seed_locked.exit
  %20 = getelementptr inbounds nuw i8, ptr %0, i64 8
  %21 = load ptr, ptr %20, align 8, !tbaa !17
  tail call void %18(ptr noundef %21) #8
  br label %evp_rand_unlock.exit

evp_rand_unlock.exit:                             ; preds = %19, %evp_rand_clear_seed_locked.exit, %evp_rand_lock.exit
  ret void
}